target datalayout = "e-m:e-p270:32:32-p271:32:32-p272:64:64-i64:64-i128:128-f80:128-n8:16:32:64-S128"
target triple = "x86_64-pc-linux-gnu"

; Function Attrs: mustprogress uwtable
define void @_ZNK5boost4urls12ipv4_address14to_string_implERNS0_12string_token3argE(ptr noundef nonnull align 4 dereferenceable(4) %0, ptr noundef nonnull align 8 dereferenceable(8) %1) #5 align 2 {
  %3 = alloca ptr, align 8
  %4 = alloca ptr, align 8
  %5 = alloca [15 x i8], align 1
  %6 = alloca i64, align 8
  %7 = alloca ptr, align 8
  store ptr %0, ptr %3, align 8, !tbaa !7
  store ptr %1, ptr %4, align 8, !tbaa !7
  %8 = load ptr, ptr %3, align 8
  call void @llvm.lifetime.start.p0(i64 15, ptr %5) #15
  call void @llvm.lifetime.start.p0(i64 8, ptr %6) #15
  %9 = getelementptr inbounds [15 x i8], ptr %5, i64 0, i64 0
  %10 = call noundef i64 @_ZNK5boost4urls12ipv4_address10print_implEPc(ptr noundef nonnull align 4 dereferenceable(4) %8, ptr noundef %9) #15
  store i64 %10, ptr %6, align 8, !tbaa !19
  call void @llvm.lifetime.start.p0(i64 8, ptr %7) #15
  %11 = load ptr, ptr %4, align 8, !tbaa !7
  %12 = load i64, ptr %6, align 8, !tbaa !19
  %13 = load ptr, ptr %11, align 8, !tbaa !14
  %14 = getelementptr inbounds ptr, ptr %13, i64 0
  %15 = load ptr, ptr %14, align 8
  %16 = call noundef ptr %15(ptr noundef nonnull align 8 dereferenceable(8) %11, i64 noundef %12)
  store ptr %16, ptr %7, align 8, !tbaa !7
  %17 = load ptr, ptr %7, align 8, !tbaa !7
  %18 = getelementptr inbounds [15 x i8], ptr %5, i64 0, i64 0
  %19 = load i64, ptr %6, align 8, !tbaa !19
  call void @llvm.memcpy.p0.p0.i64(ptr align 1 %17, ptr align 1 %18, i64 %19, i1 false)
  call void @llvm.lifetime.end.p0(i64 8, ptr %7) #15
  call void @llvm.lifetime.end.p0(i64 8, ptr %6) #15
  call void @llvm.lifetime.end.p0(i64 15, ptr %5) #15
  ret void
}