; Function Attrs: mustprogress uwtable
define void @_ZNK5boost4urls12ipv4_address14to_string_implERNS0_12string_token3argE(ptr nocapture noundef nonnull readonly align 4 dereferenceable(4) %0, ptr noundef nonnull align 8 dereferenceable(8) %1) local_unnamed_addr #3 align 2 {
  %3 = alloca [15 x i8], align 1
  call void @llvm.lifetime.start.p0(i64 15, ptr nonnull %3) #21
  %4 = call noundef i64 @_ZNK5boost4urls12ipv4_address10print_implEPc(ptr noundef nonnull align 4 dereferenceable(4) %0, ptr noundef nonnull %3) #21
  %5 = load ptr, ptr %1, align 8, !tbaa !28
  %6 = load ptr, ptr %5, align 8
  %7 = call noundef ptr %6(ptr noundef nonnull align 8 dereferenceable(8) %1, i64 noundef %4)
  call void @llvm.memcpy.p0.p0.i64(ptr align 1 %7, ptr nonnull align 1 %3, i64 %4, i1 false)
  call void @llvm.lifetime.end.p0(i64 15, ptr nonnull %3) #21
  ret void
}